; Function Attrs: mustprogress uwtable
define void @_ZN2cv5utils5trace7details6Region4ImplC2ERNS2_23TraceManagerThreadLocalEPS3_RS3_RKNS3_21LocationStaticStorageEl(ptr noundef nonnull align 8 dereferenceable(80) initializes((0, 53), (56, 80)) %0, ptr noundef nonnull align 8 dereferenceable(208) initializes((16, 24)) %1, ptr noundef %2, ptr noundef nonnull align 8 dereferenceable(12) %3, ptr noundef nonnull align 8 dereferenceable(32) %4, i64 noundef %5) unnamed_addr #3 align 2 {
  store ptr %4, ptr %0, align 8, !tbaa !44
  %7 = getelementptr inbounds nuw i8, ptr %0, i64 8
  store ptr %3, ptr %7, align 8, !tbaa !46
  %8 = getelementptr inbounds nuw i8, ptr %0, i64 16
  store ptr %2, ptr %8, align 8, !tbaa !48
  %9 = getelementptr inbounds nuw i8, ptr %0, i64 24
  %10 = load i32, ptr %1, align 8, !tbaa !52
  store i32 %10, ptr %9, align 8, !tbaa !66
  %11 = getelementptr inbounds nuw i8, ptr %0, i64 28
  %12 = getelementptr inbounds nuw i8, ptr %1, i64 4
  %13 = load i32, ptr %12, align 4, !tbaa !67
  %14 = add nsw i32 %13, 1
  store i32 %14, ptr %12, align 4, !tbaa !67
  store i32 %14, ptr %11, align 4, !tbaa !68
  %15 = getelementptr inbounds nuw i8, ptr %0, i64 32
  store i64 %5, ptr %15, align 8, !tbaa !69
  %16 = getelementptr inbounds nuw i8, ptr %0, i64 40
  store i64 0, ptr %16, align 8, !tbaa !70
  %17 = getelementptr inbounds nuw i8, ptr %0, i64 48
  store i32 0, ptr %17, align 8, !tbaa !71
  %18 = getelementptr inbounds nuw i8, ptr %0, i64 52
  store i8 0, ptr %18, align 4, !tbaa !72
  %19 = getelementptr inbounds nuw i8, ptr %0, i64 56
  tail call void @llvm.memset.p0.i64(ptr noundef nonnull align 8 dereferenceable(24) %19, i8 0, i64 24, i1 false)
  store ptr %0, ptr %3, align 8, !tbaa !73
  %20 = tail call fastcc noundef zeroext i1 @_ZN2cv5utils5trace7detailsL12isITTEnabledEv()
  br i1 %20, label %21, label %_ZN2cv5utils5trace7details6Region4Impl14registerRegionERNS2_23TraceManagerThreadLocalE.exit

21:                                               ; preds = %6
  %22 = load i8, ptr %18, align 4, !tbaa !72, !range !21, !noundef !22
  %23 = trunc nuw i8 %22 to i1
  br i1 %23, label %_ZN2cv5utils5trace7details6Region4Impl14registerRegionERNS2_23TraceManagerThreadLocalE.exit, label %24

24:                                               ; preds = %21
  %25 = load i32, ptr %1, align 8, !tbaa !52
  %26 = add nsw i32 %25, 1
  %27 = sext i32 %26 to i64
  %28 = shl nsw i64 %27, 32
  %29 = load i32, ptr %11, align 4, !tbaa !68
  %30 = sext i32 %29 to i64
  %31 = or i64 %28, %30
  store i64 %31, ptr %19, align 8, !tbaa !76
  %.sroa.4.0..sroa_idx.i = getelementptr inbounds nuw i8, ptr %0, i64 64
  store i64 %30, ptr %.sroa.4.0..sroa_idx.i, align 8, !tbaa !76
  %.sroa.5.0..sroa_idx.i = getelementptr inbounds nuw i8, ptr %0, i64 72
  store i64 0, ptr %.sroa.5.0..sroa_idx.i, align 8, !tbaa !76
  %32 = load ptr, ptr @_ZN2cv5utils5trace7detailsL6domainE, align 8, !tbaa !23
  %33 = icmp eq ptr %32, null
  br i1 %33, label %40, label %34

34:                                               ; preds = %24
  %35 = load volatile i32, ptr %32, align 8, !tbaa !77
  %36 = icmp ne i32 %35, 0
  %37 = load ptr, ptr @__itt_id_create_ptr__3_0, align 8
  %38 = icmp ne ptr %37, null
  %or.cond.i = select i1 %36, i1 %38, i1 false
  br i1 %or.cond.i, label %39, label %40

39:                                               ; preds = %34
  tail call void %37(ptr noundef nonnull %32, ptr noundef nonnull byval(%struct.___itt_id) align 8 %19)
  br label %40

40:                                               ; preds = %39, %34, %24
  store i8 1, ptr %18, align 4, !tbaa !72
  br label %_ZN2cv5utils5trace7details6Region4Impl14registerRegionERNS2_23TraceManagerThreadLocalE.exit

_ZN2cv5utils5trace7details6Region4Impl14registerRegionERNS2_23TraceManagerThreadLocalE.exit: ; preds = %6, %21, %40
  tail call void @_ZN2cv5utils5trace7details6Region4Impl11enterRegionERNS2_23TraceManagerThreadLocalE(ptr noundef nonnull align 8 dereferenceable(80) %0, ptr noundef nonnull align 8 dereferenceable(208) %1)
  ret void
}